; Function Attrs: mustprogress uwtable
define hidden void @_ZN5zxing9BitMatrix9setRegionEiiiiRNS_12ErrorHandlerE(ptr nocapture noundef nonnull readonly align 8 dereferenceable(346) %0, i32 noundef %1, i32 noundef %2, i32 noundef %3, i32 noundef %4, ptr noundef nonnull align 8 dereferenceable(48) %5) local_unnamed_addr #0 align 2 personality ptr @__gxx_personality_v0 {
  %7 = alloca %"class.zxing::IllegalArgumentErrorHandler", align 8
  %8 = alloca %"class.zxing::IllegalArgumentErrorHandler", align 8
  %9 = alloca %"class.zxing::IllegalArgumentErrorHandler", align 8
  %10 = or i32 %2, %1
  %or.cond.not = icmp sgt i32 %10, -1
  %.sink45.sroa.gep = getelementptr inbounds i8, ptr %9, i64 16
  %.sink45.sroa.gep47 = getelementptr inbounds i8, ptr %8, i64 16
  %.sink45.sroa.gep48 = getelementptr inbounds i8, ptr %7, i64 16
  %.sink46.sroa.gep = getelementptr inbounds i8, ptr %9, i64 16
  %.sink46.sroa.gep49 = getelementptr inbounds i8, ptr %8, i64 16
  %.sink46.sroa.gep50 = getelementptr inbounds i8, ptr %7, i64 16
  br i1 %or.cond.not, label %17, label %11

11:                                               ; preds = %6
  call void @_ZN5zxing12ErrorHandlerC2EPKc(ptr noundef nonnull align 8 dereferenceable(48) %7, ptr noundef nonnull @.str)
  store ptr getelementptr inbounds inrange(-16, 64) (i8, ptr @_ZTVN5zxing27IllegalArgumentErrorHandlerE, i64 16), ptr %7, align 8
  %12 = getelementptr inbounds i8, ptr %7, i64 8
  store i32 4, ptr %12, align 8
  %13 = invoke noundef nonnull align 8 dereferenceable(48) ptr @_ZN5zxing12ErrorHandleraSERKS0_(ptr noundef nonnull align 8 dereferenceable(48) %5, ptr noundef nonnull align 8 dereferenceable(48) %7)
          to label %14 unwind label %15

14:                                               ; preds = %11
  store ptr getelementptr inbounds inrange(-16, 64) (i8, ptr @_ZTVN5zxing12ErrorHandlerE, i64 16), ptr %7, align 8
  br label %.loopexit.sink.split

15:                                               ; preds = %11
  %16 = landingpad { ptr, i32 }
          cleanup
  store ptr getelementptr inbounds inrange(-16, 64) (i8, ptr @_ZTVN5zxing12ErrorHandlerE, i64 16), ptr %7, align 8
  br label %60

17:                                               ; preds = %6
  %18 = icmp slt i32 %4, 1
  %19 = icmp slt i32 %3, 1
  %or.cond3 = or i1 %19, %18
  br i1 %or.cond3, label %20, label %26

20:                                               ; preds = %17
  call void @_ZN5zxing12ErrorHandlerC2EPKc(ptr noundef nonnull align 8 dereferenceable(48) %8, ptr noundef nonnull @.str.1)
  store ptr getelementptr inbounds inrange(-16, 64) (i8, ptr @_ZTVN5zxing27IllegalArgumentErrorHandlerE, i64 16), ptr %8, align 8
  %21 = getelementptr inbounds i8, ptr %8, i64 8
  store i32 4, ptr %21, align 8
  %22 = invoke noundef nonnull align 8 dereferenceable(48) ptr @_ZN5zxing12ErrorHandleraSERKS0_(ptr noundef nonnull align 8 dereferenceable(48) %5, ptr noundef nonnull align 8 dereferenceable(48) %8)
          to label %23 unwind label %24

23:                                               ; preds = %20
  store ptr getelementptr inbounds inrange(-16, 64) (i8, ptr @_ZTVN5zxing12ErrorHandlerE, i64 16), ptr %8, align 8
  br label %.loopexit.sink.split

24:                                               ; preds = %20
  %25 = landingpad { ptr, i32 }
          cleanup
  store ptr getelementptr inbounds inrange(-16, 64) (i8, ptr @_ZTVN5zxing12ErrorHandlerE, i64 16), ptr %8, align 8
  br label %60

26:                                               ; preds = %17
  %27 = add nuw nsw i32 %3, %1
  %28 = add nuw nsw i32 %4, %2
  %29 = getelementptr inbounds i8, ptr %0, i64 16
  %30 = load i32, ptr %29, align 8
  %31 = icmp sgt i32 %28, %30
  %32 = getelementptr inbounds i8, ptr %0, i64 12
  %33 = load i32, ptr %32, align 4
  %34 = icmp sgt i32 %27, %33
  %or.cond = select i1 %31, i1 true, i1 %34
  br i1 %or.cond, label %54, label %.preheader.us.preheader

.preheader.us.preheader:                          ; preds = %26
  %35 = getelementptr inbounds i8, ptr %0, i64 336
  %36 = getelementptr inbounds i8, ptr %0, i64 312
  %37 = sext i32 %2 to i64
  %38 = sext i32 %28 to i64
  br label %.preheader.us

.preheader.us:                                    ; preds = %.preheader.us.preheader, %._crit_edge.us
  %indvars.iv = phi i64 [ %37, %.preheader.us.preheader ], [ %indvars.iv.next, %._crit_edge.us ]
  br label %39

39:                                               ; preds = %.preheader.us, %39
  %.041.us = phi i32 [ %1, %.preheader.us ], [ %51, %39 ]
  %40 = load ptr, ptr %35, align 8
  %41 = getelementptr inbounds i8, ptr %40, i64 16
  %42 = load ptr, ptr %41, align 8
  %43 = getelementptr inbounds i32, ptr %42, i64 %indvars.iv
  %44 = load i32, ptr %43, align 4
  %45 = add nsw i32 %44, %.041.us
  %46 = load ptr, ptr %36, align 8
  %47 = getelementptr inbounds i8, ptr %46, i64 16
  %48 = sext i32 %45 to i64
  %49 = load ptr, ptr %47, align 8
  %50 = getelementptr inbounds i8, ptr %49, i64 %48
  store i8 1, ptr %50, align 1
  %51 = add nuw nsw i32 %.041.us, 1
  %52 = icmp slt i32 %51, %27
  br i1 %52, label %39, label %._crit_edge.us, !llvm.loop !12

._crit_edge.us:                                   ; preds = %39
  %indvars.iv.next = add nuw nsw i64 %indvars.iv, 1
  %53 = icmp slt i64 %indvars.iv.next, %38
  br i1 %53, label %.preheader.us, label %.loopexit, !llvm.loop !13

54:                                               ; preds = %26
  call void @_ZN5zxing12ErrorHandlerC2EPKc(ptr noundef nonnull align 8 dereferenceable(48) %9, ptr noundef nonnull @.str.2)
  store ptr getelementptr inbounds inrange(-16, 64) (i8, ptr @_ZTVN5zxing27IllegalArgumentErrorHandlerE, i64 16), ptr %9, align 8
  %55 = getelementptr inbounds i8, ptr %9, i64 8
  store i32 4, ptr %55, align 8
  %56 = invoke noundef nonnull align 8 dereferenceable(48) ptr @_ZN5zxing12ErrorHandleraSERKS0_(ptr noundef nonnull align 8 dereferenceable(48) %5, ptr noundef nonnull align 8 dereferenceable(48) %9)
          to label %57 unwind label %58

57:                                               ; preds = %54
  store ptr getelementptr inbounds inrange(-16, 64) (i8, ptr @_ZTVN5zxing12ErrorHandlerE, i64 16), ptr %9, align 8
  br label %.loopexit.sink.split

58:                                               ; preds = %54
  %59 = landingpad { ptr, i32 }
          cleanup
  store ptr getelementptr inbounds inrange(-16, 64) (i8, ptr @_ZTVN5zxing12ErrorHandlerE, i64 16), ptr %9, align 8
  br label %60

.loopexit.sink.split:                             ; preds = %14, %23, %57
  %.sink45.sroa.phi = phi ptr [ %.sink45.sroa.gep, %57 ], [ %.sink45.sroa.gep47, %23 ], [ %.sink45.sroa.gep48, %14 ]
  call void @_ZNSt7__cxx1112basic_stringIcSt11char_traitsIcESaIcEED1Ev(ptr noundef nonnull align 8 dereferenceable(32) %.sink45.sroa.phi) #16
  br label %.loopexit

.loopexit:                                        ; preds = %._crit_edge.us, %.loopexit.sink.split
  ret void

60:                                               ; preds = %58, %24, %15
  %.sink46.sroa.phi = phi ptr [ %.sink46.sroa.gep, %58 ], [ %.sink46.sroa.gep49, %24 ], [ %.sink46.sroa.gep50, %15 ]
  %.pn = phi { ptr, i32 } [ %59, %58 ], [ %25, %24 ], [ %16, %15 ]
  call void @_ZNSt7__cxx1112basic_stringIcSt11char_traitsIcESaIcEED1Ev(ptr noundef nonnull align 8 dereferenceable(32) %.sink46.sroa.phi) #16
  resume { ptr, i32 } %.pn
}